; Function Attrs: mustprogress nounwind uwtable
define range(i32 0, -65535) i32 @_ZN8WasmEdge4Host4WASI5INode10pathRenameERKS2_NSt7__cxx1112basic_stringIcSt11char_traitsIcESaIcEEES4_SA_(ptr noundef nonnull readonly align 8 captures(none) dereferenceable(200) %0, ptr noundef nonnull %1, ptr noundef nonnull readonly align 8 captures(none) dereferenceable(200) %2, ptr noundef %3) local_unnamed_addr #0 align 2 personality ptr @__gxx_personality_v0 {
  %5 = load i32, ptr %0, align 8
  %6 = tail call noundef ptr @_ZNKSt7__cxx1112basic_stringIcSt11char_traitsIcESaIcEE5c_strEv(ptr noundef nonnull align 8 dereferenceable(32) %1) #24
  %7 = load i32, ptr %2, align 8
  %8 = tail call noundef ptr @_ZNKSt7__cxx1112basic_stringIcSt11char_traitsIcESaIcEE5c_strEv(ptr noundef nonnull align 8 dereferenceable(32) %3) #24
  %9 = tail call i32 @renameat(i32 noundef %5, ptr noundef %6, i32 noundef %7, ptr noundef %8) #24
  %.not = icmp eq i32 %9, 0
  br i1 %.not, label %16, label %10

10:                                               ; preds = %4
  %11 = tail call ptr @__errno_location() #25
  %12 = load i32, ptr %11, align 4
  %13 = tail call noundef zeroext i16 @_ZN8WasmEdge4Host4WASI6detail9fromErrNoEi(i32 noundef %12) #24
  %14 = zext i16 %13 to i32
  %15 = shl nuw i32 %14, 16
  br label %16

16:                                               ; preds = %4, %10
  %.sroa.02.0.insert.insert = phi i32 [ %15, %10 ], [ 1, %4 ]
  ret i32 %.sroa.02.0.insert.insert
}